target datalayout = "e-m:e-p270:32:32-p271:32:32-p272:64:64-i64:64-i128:128-f80:128-n8:16:32:64-S128"
target triple = "x86_64-pc-linux-gnu"

%struct.strbuf = type { i64, i64, ptr }
%struct.date_mode = type { i32, i32, ptr }
%struct.string_list = type { ptr, i64, i64, i8, ptr }
%struct.shortlog = type { %struct.string_list, i32, i32, i32, i32, i32, i32, i32, i32, %struct.date_mode, i32, %struct.string_list, %struct.string_list, i32, %struct.string_list, ptr }
%struct.string_list_item = type { ptr, ptr }

@__const.insert_one_record.subject = private unnamed_addr constant %struct.strbuf { i64 0, i64 0, ptr @strbuf_slopbuf }, align 8
@sane_ctype = external constant [256 x i8], align 16
@.str.28 = private unnamed_addr constant [7 x i8] c"[PATCH\00", align 1
@.str.29 = private unnamed_addr constant [2 x i8] c" \00", align 1

; Function Attrs: nounwind uwtable
define internal void @insert_one_record(ptr noundef %0, ptr noundef %1, ptr noundef %2) #0 {
  %4 = alloca ptr, align 8
  %5 = alloca ptr, align 8
  %6 = alloca ptr, align 8
  %7 = alloca ptr, align 8
  %8 = alloca ptr, align 8
  %9 = alloca %struct.strbuf, align 8
  %10 = alloca ptr, align 8
  %11 = alloca ptr, align 8
  store ptr %0, ptr %4, align 8, !tbaa !4
  store ptr %1, ptr %5, align 8, !tbaa !30
  store ptr %2, ptr %6, align 8, !tbaa !30
  call void @llvm.lifetime.start.p0(i64 8, ptr %7) #10
  %12 = load ptr, ptr %4, align 8, !tbaa !4
  %13 = getelementptr inbounds nuw %struct.shortlog, ptr %12, i32 0, i32 0
  %14 = load ptr, ptr %5, align 8, !tbaa !30
  %15 = call ptr @string_list_insert(ptr noundef %13, ptr noundef %14)
  store ptr %15, ptr %7, align 8, !tbaa !52
  %16 = load ptr, ptr %4, align 8, !tbaa !4
  %17 = getelementptr inbounds nuw %struct.shortlog, ptr %16, i32 0, i32 1
  %18 = load i32, ptr %17, align 8, !tbaa !32
  %19 = icmp ne i32 %18, 0
  br i1 %19, label %20, label %29

20:                                               ; preds = %3
  %21 = load ptr, ptr %7, align 8, !tbaa !52
  %22 = getelementptr inbounds nuw %struct.string_list_item, ptr %21, i32 0, i32 1
  %23 = load ptr, ptr %22, align 8, !tbaa !158
  %24 = ptrtoint ptr %23 to i64
  %25 = add nsw i64 %24, 1
  %26 = inttoptr i64 %25 to ptr
  %27 = load ptr, ptr %7, align 8, !tbaa !52
  %28 = getelementptr inbounds nuw %struct.string_list_item, ptr %27, i32 0, i32 1
  store ptr %26, ptr %28, align 8, !tbaa !158
  br label %125

29:                                               ; preds = %3
  call void @llvm.lifetime.start.p0(i64 8, ptr %8) #10
  call void @llvm.lifetime.start.p0(i64 24, ptr %9) #10
  call void @llvm.memcpy.p0.p0.i64(ptr align 8 %9, ptr align 8 @__const.insert_one_record.subject, i64 24, i1 false)
  call void @llvm.lifetime.start.p0(i64 8, ptr %10) #10
  br label %30

30:                                               ; preds = %46, %29
  %31 = load ptr, ptr %6, align 8, !tbaa !30
  %32 = load i8, ptr %31, align 1, !tbaa !148
  %33 = sext i8 %32 to i32
  %34 = icmp ne i32 %33, 0
  br i1 %34, label %35, label %44

35:                                               ; preds = %30
  %36 = load ptr, ptr %6, align 8, !tbaa !30
  %37 = load i8, ptr %36, align 1, !tbaa !148
  %38 = zext i8 %37 to i64
  %39 = getelementptr inbounds nuw [256 x i8], ptr @sane_ctype, i64 0, i64 %38
  %40 = load i8, ptr %39, align 1, !tbaa !148
  %41 = zext i8 %40 to i32
  %42 = and i32 %41, 1
  %43 = icmp ne i32 %42, 0
  br label %44

44:                                               ; preds = %35, %30
  %45 = phi i1 [ false, %30 ], [ %43, %35 ]
  br i1 %45, label %46, label %49

46:                                               ; preds = %44
  %47 = load ptr, ptr %6, align 8, !tbaa !30
  %48 = getelementptr inbounds nuw i8, ptr %47, i32 1
  store ptr %48, ptr %6, align 8, !tbaa !30
  br label %30, !llvm.loop !171

49:                                               ; preds = %44
  %50 = load ptr, ptr %6, align 8, !tbaa !30
  %51 = call ptr @strchr(ptr noundef %50, i32 noundef 10) #11
  store ptr %51, ptr %10, align 8, !tbaa !30
  %52 = load ptr, ptr %10, align 8, !tbaa !30
  %53 = icmp ne ptr %52, null
  br i1 %53, label %59, label %54

54:                                               ; preds = %49
  %55 = load ptr, ptr %6, align 8, !tbaa !30
  %56 = load ptr, ptr %6, align 8, !tbaa !30
  %57 = call i64 @strlen(ptr noundef %56) #11
  %58 = getelementptr inbounds nuw i8, ptr %55, i64 %57
  store ptr %58, ptr %10, align 8, !tbaa !30
  br label %59

59:                                               ; preds = %54, %49
  %60 = load ptr, ptr %6, align 8, !tbaa !30
  %61 = call i32 @starts_with(ptr noundef %60, ptr noundef @.str.28)
  %62 = icmp ne i32 %61, 0
  br i1 %62, label %63, label %79

63:                                               ; preds = %59
  call void @llvm.lifetime.start.p0(i64 8, ptr %11) #10
  %64 = load ptr, ptr %6, align 8, !tbaa !30
  %65 = call ptr @strchr(ptr noundef %64, i32 noundef 93) #11
  store ptr %65, ptr %11, align 8, !tbaa !30
  %66 = load ptr, ptr %11, align 8, !tbaa !30
  %67 = icmp ne ptr %66, null
  br i1 %67, label %68, label %78

68:                                               ; preds = %63
  %69 = load ptr, ptr %10, align 8, !tbaa !30
  %70 = icmp ne ptr %69, null
  br i1 %70, label %71, label %75

71:                                               ; preds = %68
  %72 = load ptr, ptr %11, align 8, !tbaa !30
  %73 = load ptr, ptr %10, align 8, !tbaa !30
  %74 = icmp ult ptr %72, %73
  br i1 %74, label %75, label %78

75:                                               ; preds = %71, %68
  %76 = load ptr, ptr %11, align 8, !tbaa !30
  %77 = getelementptr inbounds i8, ptr %76, i64 1
  store ptr %77, ptr %6, align 8, !tbaa !30
  br label %78

78:                                               ; preds = %75, %71, %63
  call void @llvm.lifetime.end.p0(i64 8, ptr %11) #10
  br label %79

79:                                               ; preds = %78, %59
  br label %80

80:                                               ; preds = %101, %79
  %81 = load ptr, ptr %6, align 8, !tbaa !30
  %82 = load i8, ptr %81, align 1, !tbaa !148
  %83 = sext i8 %82 to i32
  %84 = icmp ne i32 %83, 0
  br i1 %84, label %85, label %99

85:                                               ; preds = %80
  %86 = load ptr, ptr %6, align 8, !tbaa !30
  %87 = load i8, ptr %86, align 1, !tbaa !148
  %88 = zext i8 %87 to i64
  %89 = getelementptr inbounds nuw [256 x i8], ptr @sane_ctype, i64 0, i64 %88
  %90 = load i8, ptr %89, align 1, !tbaa !148
  %91 = zext i8 %90 to i32
  %92 = and i32 %91, 1
  %93 = icmp ne i32 %92, 0
  br i1 %93, label %94, label %99

94:                                               ; preds = %85
  %95 = load ptr, ptr %6, align 8, !tbaa !30
  %96 = load i8, ptr %95, align 1, !tbaa !148
  %97 = sext i8 %96 to i32
  %98 = icmp ne i32 %97, 10
  br label %99

99:                                               ; preds = %94, %85, %80
  %100 = phi i1 [ false, %85 ], [ false, %80 ], [ %98, %94 ]
  br i1 %100, label %101, label %104

101:                                              ; preds = %99
  %102 = load ptr, ptr %6, align 8, !tbaa !30
  %103 = getelementptr inbounds nuw i8, ptr %102, i32 1
  store ptr %103, ptr %6, align 8, !tbaa !30
  br label %80, !llvm.loop !172

104:                                              ; preds = %99
  %105 = load ptr, ptr %6, align 8, !tbaa !30
  %106 = call ptr @format_subject(ptr noundef %9, ptr noundef %105, ptr noundef @.str.29)
  %107 = call ptr @strbuf_detach(ptr noundef %9, ptr noundef null)
  store ptr %107, ptr %8, align 8, !tbaa !30
  %108 = load ptr, ptr %7, align 8, !tbaa !52
  %109 = getelementptr inbounds nuw %struct.string_list_item, ptr %108, i32 0, i32 1
  %110 = load ptr, ptr %109, align 8, !tbaa !158
  %111 = icmp ne ptr %110, null
  br i1 %111, label %119, label %112

112:                                              ; preds = %104
  %113 = call ptr @xmalloc(i64 noundef 40)
  %114 = load ptr, ptr %7, align 8, !tbaa !52
  %115 = getelementptr inbounds nuw %struct.string_list_item, ptr %114, i32 0, i32 1
  store ptr %113, ptr %115, align 8, !tbaa !158
  %116 = load ptr, ptr %7, align 8, !tbaa !52
  %117 = getelementptr inbounds nuw %struct.string_list_item, ptr %116, i32 0, i32 1
  %118 = load ptr, ptr %117, align 8, !tbaa !158
  call void @string_list_init_nodup(ptr noundef %118)
  br label %119

119:                                              ; preds = %112, %104
  %120 = load ptr, ptr %7, align 8, !tbaa !52
  %121 = getelementptr inbounds nuw %struct.string_list_item, ptr %120, i32 0, i32 1
  %122 = load ptr, ptr %121, align 8, !tbaa !158
  %123 = load ptr, ptr %8, align 8, !tbaa !30
  %124 = call ptr @string_list_append(ptr noundef %122, ptr noundef %123)
  call void @llvm.lifetime.end.p0(i64 8, ptr %10) #10
  call void @llvm.lifetime.end.p0(i64 24, ptr %9) #10
  call void @llvm.lifetime.end.p0(i64 8, ptr %8) #10
  br label %125

125:                                              ; preds = %119, %20
  call void @llvm.lifetime.end.p0(i64 8, ptr %7) #10
  ret void
}