; Function Attrs: nounwind uwtable
define internal fastcc void @insert_one_record(ptr noundef %0, ptr noundef %1, ptr noundef %2) unnamed_addr #0 {
  %4 = alloca %struct.strbuf, align 8
  %5 = tail call ptr @string_list_insert(ptr noundef %0, ptr noundef %1) #17
  %6 = getelementptr inbounds nuw i8, ptr %0, i64 40
  %7 = load i32, ptr %6, align 8, !tbaa !28
  %.not = icmp eq i32 %7, 0
  br i1 %.not, label %14, label %8

8:                                                ; preds = %3
  %9 = getelementptr inbounds nuw i8, ptr %5, i64 8
  %10 = load ptr, ptr %9, align 8, !tbaa !140
  %11 = ptrtoint ptr %10 to i64
  %12 = add nsw i64 %11, 1
  %13 = inttoptr i64 %12 to ptr
  store ptr %13, ptr %9, align 8, !tbaa !140
  br label %54

14:                                               ; preds = %3
  call void @llvm.lifetime.start.p0(i64 24, ptr nonnull %4) #17
  call void @llvm.memcpy.p0.p0.i64(ptr noundef nonnull align 8 dereferenceable(24) %4, ptr noundef nonnull align 8 dereferenceable(24) @__const.read_from_stdin.oneline, i64 24, i1 false)
  %15 = load i8, ptr %2, align 1, !tbaa !43
  %.not3546 = icmp eq i8 %15, 0
  br i1 %.not3546, label %.critedge, label %.lr.ph

.lr.ph:                                           ; preds = %14, %21
  %16 = phi i8 [ %23, %21 ], [ %15, %14 ]
  %.047 = phi ptr [ %22, %21 ], [ %2, %14 ]
  %17 = zext i8 %16 to i64
  %18 = getelementptr inbounds nuw [256 x i8], ptr @sane_ctype, i64 0, i64 %17
  %19 = load i8, ptr %18, align 1, !tbaa !43
  %20 = and i8 %19, 1
  %.not36 = icmp eq i8 %20, 0
  br i1 %.not36, label %.critedge, label %21

21:                                               ; preds = %.lr.ph
  %22 = getelementptr inbounds nuw i8, ptr %.047, i64 1
  %23 = load i8, ptr %22, align 1, !tbaa !43
  %.not35 = icmp eq i8 %23, 0
  br i1 %.not35, label %.critedge, label %.lr.ph, !llvm.loop !151

.critedge:                                        ; preds = %.lr.ph, %21, %14
  %.0.lcssa = phi ptr [ %2, %14 ], [ %22, %21 ], [ %.047, %.lr.ph ]
  %24 = tail call ptr @strchr(ptr noundef nonnull dereferenceable(1) %.0.lcssa, i32 noundef 10) #18
  %.not37 = icmp eq ptr %24, null
  br i1 %.not37, label %25, label %28

25:                                               ; preds = %.critedge
  %26 = tail call i64 @strlen(ptr noundef nonnull dereferenceable(1) %.0.lcssa) #18
  %27 = getelementptr inbounds nuw i8, ptr %.0.lcssa, i64 %26
  br label %28

28:                                               ; preds = %25, %.critedge
  %.031 = phi ptr [ %24, %.critedge ], [ %27, %25 ]
  %29 = tail call i32 @starts_with(ptr noundef nonnull %.0.lcssa, ptr noundef nonnull @.str.28) #17
  %.not38 = icmp eq i32 %29, 0
  br i1 %.not38, label %35, label %30

30:                                               ; preds = %28
  %31 = tail call ptr @strchr(ptr noundef nonnull dereferenceable(1) %.0.lcssa, i32 noundef 93) #18
  %.not39 = icmp eq ptr %31, null
  br i1 %.not39, label %35, label %32

32:                                               ; preds = %30
  %33 = icmp ult ptr %31, %.031
  %34 = getelementptr inbounds nuw i8, ptr %31, i64 1
  %spec.select = select i1 %33, ptr %34, ptr %.0.lcssa
  br label %35

35:                                               ; preds = %32, %30, %28
  %.1 = phi ptr [ %.0.lcssa, %28 ], [ %.0.lcssa, %30 ], [ %spec.select, %32 ]
  %36 = load i8, ptr %.1, align 1, !tbaa !43
  %.not4150 = icmp eq i8 %36, 0
  br i1 %.not4150, label %.critedge2, label %.lr.ph52

.lr.ph52:                                         ; preds = %35, %42
  %37 = phi i8 [ %44, %42 ], [ %36, %35 ]
  %.351 = phi ptr [ %43, %42 ], [ %.1, %35 ]
  %38 = zext i8 %37 to i64
  %39 = getelementptr inbounds nuw [256 x i8], ptr @sane_ctype, i64 0, i64 %38
  %40 = load i8, ptr %39, align 1, !tbaa !43
  %41 = and i8 %40, 1
  %.not42 = icmp eq i8 %41, 0
  %.not43 = icmp eq i8 %37, 10
  %or.cond45 = or i1 %.not43, %.not42
  br i1 %or.cond45, label %.critedge2, label %42

42:                                               ; preds = %.lr.ph52
  %43 = getelementptr inbounds nuw i8, ptr %.351, i64 1
  %44 = load i8, ptr %43, align 1, !tbaa !43
  %.not41 = icmp eq i8 %44, 0
  br i1 %.not41, label %.critedge2, label %.lr.ph52, !llvm.loop !152

.critedge2:                                       ; preds = %42, %.lr.ph52, %35
  %.3.lcssa = phi ptr [ %.1, %35 ], [ %.351, %.lr.ph52 ], [ %43, %42 ]
  %45 = call ptr @format_subject(ptr noundef nonnull %4, ptr noundef nonnull %.3.lcssa, ptr noundef nonnull @.str.29) #17
  %46 = call ptr @strbuf_detach(ptr noundef nonnull %4, ptr noundef null) #17
  %47 = getelementptr inbounds nuw i8, ptr %5, i64 8
  %48 = load ptr, ptr %47, align 8, !tbaa !140
  %.not44 = icmp eq ptr %48, null
  br i1 %.not44, label %49, label %51

49:                                               ; preds = %.critedge2
  %50 = call ptr @xmalloc(i64 noundef 40) #17
  store ptr %50, ptr %47, align 8, !tbaa !140
  call void @string_list_init_nodup(ptr noundef %50) #17
  %.pre = load ptr, ptr %47, align 8, !tbaa !140
  br label %51

51:                                               ; preds = %49, %.critedge2
  %52 = phi ptr [ %.pre, %49 ], [ %48, %.critedge2 ]
  %53 = call ptr @string_list_append(ptr noundef %52, ptr noundef %46) #17
  call void @llvm.lifetime.end.p0(i64 24, ptr nonnull %4) #17
  br label %54

54:                                               ; preds = %51, %8
  ret void
}